target datalayout = "e-m:e-p270:32:32-p271:32:32-p272:64:64-i64:64-i128:128-f80:128-n8:16:32:64-S128"
target triple = "x86_64-pc-linux-gnu"

; Function Attrs: mustprogress nounwind uwtable
define hidden void @_ZN2os11naked_sleepEl(i64 noundef %0) #1 align 2 {
  %2 = alloca i64, align 8
  %3 = alloca i64, align 8
  store i64 %0, ptr %2, align 8
  store i64 999, ptr %3, align 8
  br label %4

4:                                                ; preds = %7, %1
  %5 = load i64, ptr %2, align 8
  %6 = icmp sgt i64 %5, 999
  br i1 %6, label %7, label %10

7:                                                ; preds = %4
  call void @_ZN2os17naked_short_sleepEl(i64 noundef 999)
  %8 = load i64, ptr %2, align 8
  %9 = sub nsw i64 %8, 999
  store i64 %9, ptr %2, align 8
  br label %4, !llvm.loop !34

10:                                               ; preds = %4
  %11 = load i64, ptr %2, align 8
  call void @_ZN2os17naked_short_sleepEl(i64 noundef %11)
  ret void
}