; Function Attrs: mustprogress nounwind uwtable
define hidden void @_ZN2os11naked_sleepEl(i64 noundef %0) local_unnamed_addr #3 align 2 {
  %2 = icmp sgt i64 %0, 999
  br i1 %2, label %.lr.ph, label %._crit_edge

.lr.ph:                                           ; preds = %1, %.lr.ph
  %.03 = phi i64 [ %3, %.lr.ph ], [ %0, %1 ]
  tail call void @_ZN2os17naked_short_sleepEl(i64 noundef 999) #28
  %3 = add nsw i64 %.03, -999
  %4 = icmp ugt i64 %.03, 1998
  br i1 %4, label %.lr.ph, label %._crit_edge, !llvm.loop !36

._crit_edge:                                      ; preds = %.lr.ph, %1
  %.0.lcssa = phi i64 [ %0, %1 ], [ %3, %.lr.ph ]
  tail call void @_ZN2os17naked_short_sleepEl(i64 noundef %.0.lcssa) #28
  ret void
}